; ModuleID = 'bench/gromacs/original/pbcenums.cpp.ll'
source_filename = "bench/gromacs/original/pbcenums.cpp.ll"
target datalayout = "e-m:e-p270:32:32-p271:32:32-p272:64:64-i64:64-i128:128-f80:128-n8:16:32:64-S128"
target triple = "x86_64-pc-linux-gnu"

%"struct.gmx::EnumerationArray" = type { [3 x ptr] }
%"struct.gmx::EnumerationArray.0" = type { [3 x ptr] }

@.str = private unnamed_addr constant [10 x i8] c"Triclinic\00", align 1
@.str.1 = private unnamed_addr constant [12 x i8] c"Rectangular\00", align 1
@.str.2 = private unnamed_addr constant [11 x i8] c"Zero-Based\00", align 1
@__const._ZN3gmx15centerTypeNamesENS_13CenteringTypeE.c_centeringTypeShortNames = private unnamed_addr constant %"struct.gmx::EnumerationArray" { [3 x ptr] [ptr @.str, ptr @.str.1, ptr @.str.2] }, align 8
@.str.3 = private unnamed_addr constant [8 x i8] c"Compact\00", align 1
@__const._ZN3gmx17unitCellTypeNamesENS_12UnitCellTypeE.c_unitCellTypeShortNames = private unnamed_addr constant %"struct.gmx::EnumerationArray.0" { [3 x ptr] [ptr @.str, ptr @.str.1, ptr @.str.3] }, align 8

; Function Attrs: mustprogress nofree norecurse nosync nounwind willreturn memory(none) uwtable
define noundef ptr @_ZN3gmx15centerTypeNamesENS_13CenteringTypeE(i32 noundef %0) local_unnamed_addr #0 {
  %2 = sext i32 %0 to i64
  %3 = getelementptr inbounds [3 x ptr], ptr @__const._ZN3gmx15centerTypeNamesENS_13CenteringTypeE.c_centeringTypeShortNames, i64 0, i64 %2
  %4 = load ptr, ptr %3, align 8
  ret ptr %4
}

; Function Attrs: mustprogress nofree norecurse nosync nounwind willreturn memory(none) uwtable
define noundef ptr @_ZN3gmx17unitCellTypeNamesENS_12UnitCellTypeE(i32 noundef %0) local_unnamed_addr #0 {
  %2 = sext i32 %0 to i64
  %3 = getelementptr inbounds [3 x ptr], ptr @__const._ZN3gmx17unitCellTypeNamesENS_12UnitCellTypeE.c_unitCellTypeShortNames, i64 0, i64 %2
  %4 = load ptr, ptr %3, align 8
  ret ptr %4
}


!llvm.module.flags = !{!0, !1, !2, !3, !4}

!0 = !{i32 1, !"wchar_size", i32 4}
!1 = !{i32 7, !"openmp", i32 51}
!2 = !{i32 8, !"PIC Level", i32 2}
!3 = !{i32 7, !"uwtable", i32 2}
!4 = !{i32 7, !"frame-pointer", i32 2}
